target datalayout = "e-m:e-p270:32:32-p271:32:32-p272:64:64-i64:64-i128:128-f80:128-n8:16:32:64-S128"
target triple = "x86_64-pc-linux-gnu"

%struct.QueryDesc = type { i32, ptr, ptr, ptr, ptr, ptr, ptr, ptr, i32, ptr, ptr, ptr, i8, ptr }
%struct.PortalData = type { ptr, ptr, ptr, ptr, ptr, i32, i32, i32, ptr, i32, %struct.QueryCompletion, ptr, ptr, ptr, ptr, i32, i32, i32, i8, i8, ptr, ptr, ptr, ptr, ptr, ptr, ptr, i8, i8, i64, i64, i8 }
%struct.QueryCompletion = type { i32, i64 }

@.str.1 = private unnamed_addr constant [9 x i8] c"pquery.c\00", align 1
@CurrentMemoryContext = external global ptr, align 8
@.str.8 = private unnamed_addr constant [29 x i8] c"cursor can only scan forward\00", align 1
@.str.9 = private unnamed_addr constant [55 x i8] c"Declare it with SCROLL option to enable backward scan.\00", align 1
@__func__.DoPortalRewind = private unnamed_addr constant [15 x i8] c"DoPortalRewind\00", align 1

; Function Attrs: inlinehint nounwind uwtable
define internal ptr @MemoryContextSwitchTo(ptr noundef %0) #3 {
  %2 = alloca ptr, align 8
  %3 = alloca ptr, align 8
  store ptr %0, ptr %2, align 8
  call void @llvm.lifetime.start.p0(i64 8, ptr %3) #10
  %4 = load ptr, ptr @CurrentMemoryContext, align 8
  store ptr %4, ptr %3, align 8
  %5 = load ptr, ptr %2, align 8
  store ptr %5, ptr @CurrentMemoryContext, align 8
  %6 = load ptr, ptr %3, align 8
  call void @llvm.lifetime.end.p0(i64 8, ptr %3) #10
  ret ptr %6
}

; Function Attrs: nounwind uwtable
define internal void @DoPortalRewind(ptr noundef %0) #0 {
  %2 = alloca ptr, align 8
  %3 = alloca ptr, align 8
  %4 = alloca i32, align 4
  %5 = alloca ptr, align 8
  store ptr %0, ptr %2, align 8
  call void @llvm.lifetime.start.p0(i64 8, ptr %3) #10
  %6 = load ptr, ptr %2, align 8
  %7 = getelementptr inbounds nuw %struct.PortalData, ptr %6, i32 0, i32 27
  %8 = load i8, ptr %7, align 8, !range !4, !noundef !5
  %9 = trunc i8 %8 to i1
  br i1 %9, label %10, label %16

10:                                               ; preds = %1
  %11 = load ptr, ptr %2, align 8
  %12 = getelementptr inbounds nuw %struct.PortalData, ptr %11, i32 0, i32 28
  %13 = load i8, ptr %12, align 1, !range !4, !noundef !5
  %14 = trunc i8 %13 to i1
  br i1 %14, label %16, label %15

15:                                               ; preds = %10
  store i32 1, ptr %4, align 4
  br label %68

16:                                               ; preds = %10, %1
  %17 = load ptr, ptr %2, align 8
  %18 = getelementptr inbounds nuw %struct.PortalData, ptr %17, i32 0, i32 16
  %19 = load i32, ptr %18, align 4
  %20 = and i32 %19, 4
  %21 = icmp ne i32 %20, 0
  br i1 %21, label %22, label %35

22:                                               ; preds = %16
  br label %23

23:                                               ; preds = %22
  br i1 true, label %24, label %26

24:                                               ; preds = %23
  %25 = call zeroext i1 @errstart_cold(i32 noundef 21, ptr noundef null) #11
  br i1 %25, label %28, label %32

26:                                               ; preds = %23
  %27 = call zeroext i1 @errstart(i32 noundef 21, ptr noundef null)
  br i1 %27, label %28, label %32

28:                                               ; preds = %26, %24
  %29 = call i32 @errcode(i32 noundef 325)
  %30 = call i32 (ptr, ...) @errmsg(ptr noundef @.str.8)
  %31 = call i32 (ptr, ...) @errhint(ptr noundef @.str.9)
  call void @errfinish(ptr noundef @.str.1, i32 noundef 1693, ptr noundef @__func__.DoPortalRewind)
  br label %32

32:                                               ; preds = %28, %26, %24
  unreachable

33:                                               ; No predecessors!
  br label %34

34:                                               ; preds = %33
  br label %35

35:                                               ; preds = %34, %16
  %36 = load ptr, ptr %2, align 8
  %37 = getelementptr inbounds nuw %struct.PortalData, ptr %36, i32 0, i32 24
  %38 = load ptr, ptr %37, align 8
  %39 = icmp ne ptr %38, null
  br i1 %39, label %40, label %50

40:                                               ; preds = %35
  call void @llvm.lifetime.start.p0(i64 8, ptr %5) #10
  %41 = load ptr, ptr %2, align 8
  %42 = getelementptr inbounds nuw %struct.PortalData, ptr %41, i32 0, i32 25
  %43 = load ptr, ptr %42, align 8
  %44 = call ptr @MemoryContextSwitchTo(ptr noundef %43)
  store ptr %44, ptr %5, align 8
  %45 = load ptr, ptr %2, align 8
  %46 = getelementptr inbounds nuw %struct.PortalData, ptr %45, i32 0, i32 24
  %47 = load ptr, ptr %46, align 8
  call void @tuplestore_rescan(ptr noundef %47)
  %48 = load ptr, ptr %5, align 8
  %49 = call ptr @MemoryContextSwitchTo(ptr noundef %48)
  call void @llvm.lifetime.end.p0(i64 8, ptr %5) #10
  br label %50

50:                                               ; preds = %40, %35
  %51 = load ptr, ptr %2, align 8
  %52 = getelementptr inbounds nuw %struct.PortalData, ptr %51, i32 0, i32 20
  %53 = load ptr, ptr %52, align 8
  store ptr %53, ptr %3, align 8
  %54 = load ptr, ptr %3, align 8
  %55 = icmp ne ptr %54, null
  br i1 %55, label %56, label %61

56:                                               ; preds = %50
  %57 = load ptr, ptr %3, align 8
  %58 = getelementptr inbounds nuw %struct.QueryDesc, ptr %57, i32 0, i32 3
  %59 = load ptr, ptr %58, align 8
  call void @PushActiveSnapshot(ptr noundef %59)
  %60 = load ptr, ptr %3, align 8
  call void @ExecutorRewind(ptr noundef %60)
  call void @PopActiveSnapshot()
  br label %61

61:                                               ; preds = %56, %50
  %62 = load ptr, ptr %2, align 8
  %63 = getelementptr inbounds nuw %struct.PortalData, ptr %62, i32 0, i32 27
  store i8 1, ptr %63, align 8
  %64 = load ptr, ptr %2, align 8
  %65 = getelementptr inbounds nuw %struct.PortalData, ptr %64, i32 0, i32 28
  store i8 0, ptr %65, align 1
  %66 = load ptr, ptr %2, align 8
  %67 = getelementptr inbounds nuw %struct.PortalData, ptr %66, i32 0, i32 29
  store i64 0, ptr %67, align 8
  store i32 0, ptr %4, align 4
  br label %68

68:                                               ; preds = %61, %15
  call void @llvm.lifetime.end.p0(i64 8, ptr %3) #10
  %69 = load i32, ptr %4, align 4
  switch i32 %69, label %71 [
    i32 0, label %70
    i32 1, label %70
  ]

70:                                               ; preds = %68, %68
  ret void

71:                                               ; preds = %68
  unreachable
}