; Function Attrs: nounwind uwtable
define internal fastcc void @DoPortalRewind(ptr noundef captures(none) %0) unnamed_addr #0 {
  %2 = getelementptr inbounds nuw i8, ptr %0, i64 192
  %3 = load i8, ptr %2, align 8, !range !4, !noundef !5
  %4 = trunc nuw i8 %3 to i1
  br i1 %4, label %5, label %9

5:                                                ; preds = %1
  %6 = getelementptr inbounds nuw i8, ptr %0, i64 193
  %7 = load i8, ptr %6, align 1, !range !4, !noundef !5
  %8 = trunc nuw i8 %7 to i1
  br i1 %8, label %9, label %34

9:                                                ; preds = %5, %1
  %10 = getelementptr inbounds nuw i8, ptr %0, i64 124
  %11 = load i32, ptr %10, align 4
  %12 = and i32 %11, 4
  %.not = icmp eq i32 %12, 0
  br i1 %.not, label %18, label %13

13:                                               ; preds = %9
  %14 = tail call zeroext i1 @errstart_cold(i32 noundef 21, ptr noundef null) #12
  tail call void @llvm.assume(i1 %14)
  %15 = tail call i32 @errcode(i32 noundef 325) #11
  %16 = tail call i32 (ptr, ...) @errmsg(ptr noundef nonnull @.str.8) #11
  %17 = tail call i32 (ptr, ...) @errhint(ptr noundef nonnull @.str.9) #11
  tail call void @errfinish(ptr noundef nonnull @.str.1, i32 noundef 1693, ptr noundef nonnull @__func__.DoPortalRewind) #11
  unreachable

18:                                               ; preds = %9
  %19 = getelementptr inbounds nuw i8, ptr %0, i64 168
  %20 = load ptr, ptr %19, align 8
  %.not14 = icmp eq ptr %20, null
  br i1 %.not14, label %25, label %21

21:                                               ; preds = %18
  %22 = getelementptr inbounds nuw i8, ptr %0, i64 176
  %23 = load ptr, ptr %22, align 8
  %24 = load ptr, ptr @CurrentMemoryContext, align 8
  store ptr %23, ptr @CurrentMemoryContext, align 8
  tail call void @tuplestore_rescan(ptr noundef nonnull %20) #11
  store ptr %24, ptr @CurrentMemoryContext, align 8
  br label %25

25:                                               ; preds = %21, %18
  %26 = getelementptr inbounds nuw i8, ptr %0, i64 136
  %27 = load ptr, ptr %26, align 8
  %.not15 = icmp eq ptr %27, null
  br i1 %.not15, label %31, label %28

28:                                               ; preds = %25
  %29 = getelementptr inbounds nuw i8, ptr %27, i64 24
  %30 = load ptr, ptr %29, align 8
  tail call void @PushActiveSnapshot(ptr noundef %30) #11
  tail call void @ExecutorRewind(ptr noundef nonnull %27) #11
  tail call void @PopActiveSnapshot() #11
  br label %31

31:                                               ; preds = %28, %25
  store i8 1, ptr %2, align 8
  %32 = getelementptr inbounds nuw i8, ptr %0, i64 193
  store i8 0, ptr %32, align 1
  %33 = getelementptr inbounds nuw i8, ptr %0, i64 200
  store i64 0, ptr %33, align 8
  br label %34

34:                                               ; preds = %5, %31
  ret void
}